target datalayout = "e-m:e-p270:32:32-p271:32:32-p272:64:64-i64:64-i128:128-f80:128-n8:16:32:64-S128"
target triple = "x86_64-unknown-linux-gnu"

%struct.zlib_data = type { %struct.z_stream_s, ptr, i32, ptr }
%struct.z_stream_s = type { ptr, i32, i64, ptr, i32, i64, ptr, ptr, ptr, ptr, ptr, i32, i64, i64 }
%struct.MultiFDSendParams = type { i8, ptr, %struct.QemuThread, ptr, i8, i32, i32, i32, i32, %struct.QemuSemaphore, %struct.QemuSemaphore, %struct.QemuMutex, i8, i8, i32, i64, i32, ptr, ptr, i32, i64, i64, ptr, i32, ptr, i32, ptr }
%struct.QemuThread = type { i64 }
%struct.QemuSemaphore = type { %struct.QemuMutex, %struct.QemuCond, i32 }
%struct.QemuCond = type { %union.pthread_cond_t, i8 }
%union.pthread_cond_t = type { %struct.__pthread_cond_s }
%struct.__pthread_cond_s = type { %union.__atomic_wide_counter, %union.__atomic_wide_counter, [2 x i32], [2 x i32], i32, i32, [2 x i32] }
%union.__atomic_wide_counter = type { i64 }
%struct.QemuMutex = type { %union.pthread_mutex_t, i8 }
%union.pthread_mutex_t = type { %struct.__pthread_mutex_s }
%struct.__pthread_mutex_s = type { i32, i32, i32, i32, i32, i16, i16, %struct.__pthread_internal_list }
%struct.__pthread_internal_list = type { ptr, ptr }
%struct.MultiFDPages_t = type { i32, i32, i64, ptr, ptr }
%struct.RAMBlock = type { %struct.rcu_head, ptr, ptr, ptr, i64, i64, i64, ptr, i32, [256 x i8], %struct.anon.0, %struct.anon.1, i32, i64, i64, ptr, ptr, ptr, i8, i64 }
%struct.rcu_head = type { ptr, ptr }
%struct.anon.0 = type { ptr, ptr }
%struct.anon.1 = type { ptr }
%struct.iovec = type { ptr, i64 }

@.str.4 = private unnamed_addr constant [33 x i8] c"../qemu/migration/multifd-zlib.c\00", align 1
@__func__.zlib_send_prepare = private unnamed_addr constant [18 x i8] c"zlib_send_prepare\00", align 1
@.str.6 = private unnamed_addr constant [49 x i8] c"multifd %u: deflate failed to compress all input\00", align 1
@.str.7 = private unnamed_addr constant [48 x i8] c"multifd %u: deflate returned %d instead of Z_OK\00", align 1

; Function Attrs: nounwind sspstrong uwtable
define internal i32 @zlib_send_prepare(ptr noundef %p, ptr noundef %errp) #0 {
entry:
  %retval = alloca i32, align 4
  %p.addr = alloca ptr, align 8
  %errp.addr = alloca ptr, align 8
  %z = alloca ptr, align 8
  %zs = alloca ptr, align 8
  %out_size = alloca i32, align 4
  %ret = alloca i32, align 4
  %i = alloca i32, align 4
  %available = alloca i32, align 4
  %flush = alloca i32, align 4
  store ptr %p, ptr %p.addr, align 8
  store ptr %errp, ptr %errp.addr, align 8
  %0 = load ptr, ptr %p.addr, align 8
  %data = getelementptr inbounds %struct.MultiFDSendParams, ptr %0, i32 0, i32 26
  %1 = load ptr, ptr %data, align 8
  store ptr %1, ptr %z, align 8
  %2 = load ptr, ptr %z, align 8
  %zs1 = getelementptr inbounds %struct.zlib_data, ptr %2, i32 0, i32 0
  store ptr %zs1, ptr %zs, align 8
  store i32 0, ptr %out_size, align 4
  store i32 0, ptr %i, align 4
  br label %for.cond

for.cond:                                         ; preds = %for.inc, %entry
  %3 = load i32, ptr %i, align 4
  %4 = load ptr, ptr %p.addr, align 8
  %normal_num = getelementptr inbounds %struct.MultiFDSendParams, ptr %4, i32 0, i32 25
  %5 = load i32, ptr %normal_num, align 8
  %cmp = icmp ult i32 %3, %5
  br i1 %cmp, label %for.body, label %for.end

for.body:                                         ; preds = %for.cond
  %6 = load ptr, ptr %z, align 8
  %zbuff_len = getelementptr inbounds %struct.zlib_data, ptr %6, i32 0, i32 2
  %7 = load i32, ptr %zbuff_len, align 8
  %8 = load i32, ptr %out_size, align 4
  %sub = sub i32 %7, %8
  store i32 %sub, ptr %available, align 4
  store i32 0, ptr %flush, align 4
  %9 = load i32, ptr %i, align 4
  %10 = load ptr, ptr %p.addr, align 8
  %normal_num2 = getelementptr inbounds %struct.MultiFDSendParams, ptr %10, i32 0, i32 25
  %11 = load i32, ptr %normal_num2, align 8
  %sub3 = sub i32 %11, 1
  %cmp4 = icmp eq i32 %9, %sub3
  br i1 %cmp4, label %if.then, label %if.end

if.then:                                          ; preds = %for.body
  store i32 2, ptr %flush, align 4
  br label %if.end

if.end:                                           ; preds = %if.then, %for.body
  %12 = load ptr, ptr %z, align 8
  %buf = getelementptr inbounds %struct.zlib_data, ptr %12, i32 0, i32 3
  %13 = load ptr, ptr %buf, align 8
  %14 = load ptr, ptr %p.addr, align 8
  %pages = getelementptr inbounds %struct.MultiFDSendParams, ptr %14, i32 0, i32 17
  %15 = load ptr, ptr %pages, align 8
  %block = getelementptr inbounds %struct.MultiFDPages_t, ptr %15, i32 0, i32 4
  %16 = load ptr, ptr %block, align 8
  %host = getelementptr inbounds %struct.RAMBlock, ptr %16, i32 0, i32 2
  %17 = load ptr, ptr %host, align 8
  %18 = load ptr, ptr %p.addr, align 8
  %normal = getelementptr inbounds %struct.MultiFDSendParams, ptr %18, i32 0, i32 24
  %19 = load ptr, ptr %normal, align 8
  %20 = load i32, ptr %i, align 4
  %idxprom = zext i32 %20 to i64
  %arrayidx = getelementptr i64, ptr %19, i64 %idxprom
  %21 = load i64, ptr %arrayidx, align 8
  %add.ptr = getelementptr i8, ptr %17, i64 %21
  %22 = load ptr, ptr %p.addr, align 8
  %page_size = getelementptr inbounds %struct.MultiFDSendParams, ptr %22, i32 0, i32 6
  %23 = load i32, ptr %page_size, align 8
  %conv = zext i32 %23 to i64
  call void @llvm.memcpy.p0.p0.i64(ptr align 1 %13, ptr align 1 %add.ptr, i64 %conv, i1 false)
  %24 = load ptr, ptr %p.addr, align 8
  %page_size5 = getelementptr inbounds %struct.MultiFDSendParams, ptr %24, i32 0, i32 6
  %25 = load i32, ptr %page_size5, align 8
  %26 = load ptr, ptr %zs, align 8
  %avail_in = getelementptr inbounds %struct.z_stream_s, ptr %26, i32 0, i32 1
  store i32 %25, ptr %avail_in, align 8
  %27 = load ptr, ptr %z, align 8
  %buf6 = getelementptr inbounds %struct.zlib_data, ptr %27, i32 0, i32 3
  %28 = load ptr, ptr %buf6, align 8
  %29 = load ptr, ptr %zs, align 8
  %next_in = getelementptr inbounds %struct.z_stream_s, ptr %29, i32 0, i32 0
  store ptr %28, ptr %next_in, align 8
  %30 = load i32, ptr %available, align 4
  %31 = load ptr, ptr %zs, align 8
  %avail_out = getelementptr inbounds %struct.z_stream_s, ptr %31, i32 0, i32 4
  store i32 %30, ptr %avail_out, align 8
  %32 = load ptr, ptr %z, align 8
  %zbuff = getelementptr inbounds %struct.zlib_data, ptr %32, i32 0, i32 1
  %33 = load ptr, ptr %zbuff, align 8
  %34 = load i32, ptr %out_size, align 4
  %idx.ext = zext i32 %34 to i64
  %add.ptr7 = getelementptr i8, ptr %33, i64 %idx.ext
  %35 = load ptr, ptr %zs, align 8
  %next_out = getelementptr inbounds %struct.z_stream_s, ptr %35, i32 0, i32 3
  store ptr %add.ptr7, ptr %next_out, align 8
  br label %do.body

do.body:                                          ; preds = %land.end, %if.end
  %36 = load ptr, ptr %zs, align 8
  %37 = load i32, ptr %flush, align 4
  %call = call i32 @deflate(ptr noundef %36, i32 noundef %37)
  store i32 %call, ptr %ret, align 4
  br label %do.cond

do.cond:                                          ; preds = %do.body
  %38 = load i32, ptr %ret, align 4
  %cmp8 = icmp eq i32 %38, 0
  br i1 %cmp8, label %land.lhs.true, label %land.end

land.lhs.true:                                    ; preds = %do.cond
  %39 = load ptr, ptr %zs, align 8
  %avail_in10 = getelementptr inbounds %struct.z_stream_s, ptr %39, i32 0, i32 1
  %40 = load i32, ptr %avail_in10, align 8
  %tobool = icmp ne i32 %40, 0
  br i1 %tobool, label %land.rhs, label %land.end

land.rhs:                                         ; preds = %land.lhs.true
  %41 = load ptr, ptr %zs, align 8
  %avail_out11 = getelementptr inbounds %struct.z_stream_s, ptr %41, i32 0, i32 4
  %42 = load i32, ptr %avail_out11, align 8
  %tobool12 = icmp ne i32 %42, 0
  br label %land.end

land.end:                                         ; preds = %land.rhs, %land.lhs.true, %do.cond
  %43 = phi i1 [ false, %land.lhs.true ], [ false, %do.cond ], [ %tobool12, %land.rhs ]
  br i1 %43, label %do.body, label %do.end, !llvm.loop !5

do.end:                                           ; preds = %land.end
  %44 = load i32, ptr %ret, align 4
  %cmp13 = icmp eq i32 %44, 0
  br i1 %cmp13, label %land.lhs.true15, label %if.end20

land.lhs.true15:                                  ; preds = %do.end
  %45 = load ptr, ptr %zs, align 8
  %avail_in16 = getelementptr inbounds %struct.z_stream_s, ptr %45, i32 0, i32 1
  %46 = load i32, ptr %avail_in16, align 8
  %tobool17 = icmp ne i32 %46, 0
  br i1 %tobool17, label %if.then18, label %if.end20

if.then18:                                        ; preds = %land.lhs.true15
  %47 = load ptr, ptr %errp.addr, align 8
  %48 = load ptr, ptr %p.addr, align 8
  %id = getelementptr inbounds %struct.MultiFDSendParams, ptr %48, i32 0, i32 0
  %49 = load i8, ptr %id, align 8
  %conv19 = zext i8 %49 to i32
  call void (ptr, ptr, i32, ptr, ptr, ...) @error_setg_internal(ptr noundef %47, ptr noundef @.str.4, i32 noundef 158, ptr noundef @__func__.zlib_send_prepare, ptr noundef @.str.6, i32 noundef %conv19)
  store i32 -1, ptr %retval, align 4
  br label %return

if.end20:                                         ; preds = %land.lhs.true15, %do.end
  %50 = load i32, ptr %ret, align 4
  %cmp21 = icmp ne i32 %50, 0
  br i1 %cmp21, label %if.then23, label %if.end26

if.then23:                                        ; preds = %if.end20
  %51 = load ptr, ptr %errp.addr, align 8
  %52 = load ptr, ptr %p.addr, align 8
  %id24 = getelementptr inbounds %struct.MultiFDSendParams, ptr %52, i32 0, i32 0
  %53 = load i8, ptr %id24, align 8
  %conv25 = zext i8 %53 to i32
  %54 = load i32, ptr %ret, align 4
  call void (ptr, ptr, i32, ptr, ptr, ...) @error_setg_internal(ptr noundef %51, ptr noundef @.str.4, i32 noundef 163, ptr noundef @__func__.zlib_send_prepare, ptr noundef @.str.7, i32 noundef %conv25, i32 noundef %54)
  store i32 -1, ptr %retval, align 4
  br label %return

if.end26:                                         ; preds = %if.end20
  %55 = load i32, ptr %available, align 4
  %56 = load ptr, ptr %zs, align 8
  %avail_out27 = getelementptr inbounds %struct.z_stream_s, ptr %56, i32 0, i32 4
  %57 = load i32, ptr %avail_out27, align 8
  %sub28 = sub i32 %55, %57
  %58 = load i32, ptr %out_size, align 4
  %add = add i32 %58, %sub28
  store i32 %add, ptr %out_size, align 4
  br label %for.inc

for.inc:                                          ; preds = %if.end26
  %59 = load i32, ptr %i, align 4
  %inc = add i32 %59, 1
  store i32 %inc, ptr %i, align 4
  br label %for.cond, !llvm.loop !7

for.end:                                          ; preds = %for.cond
  %60 = load ptr, ptr %z, align 8
  %zbuff29 = getelementptr inbounds %struct.zlib_data, ptr %60, i32 0, i32 1
  %61 = load ptr, ptr %zbuff29, align 8
  %62 = load ptr, ptr %p.addr, align 8
  %iov = getelementptr inbounds %struct.MultiFDSendParams, ptr %62, i32 0, i32 22
  %63 = load ptr, ptr %iov, align 8
  %64 = load ptr, ptr %p.addr, align 8
  %iovs_num = getelementptr inbounds %struct.MultiFDSendParams, ptr %64, i32 0, i32 23
  %65 = load i32, ptr %iovs_num, align 8
  %idxprom30 = zext i32 %65 to i64
  %arrayidx31 = getelementptr %struct.iovec, ptr %63, i64 %idxprom30
  %iov_base = getelementptr inbounds %struct.iovec, ptr %arrayidx31, i32 0, i32 0
  store ptr %61, ptr %iov_base, align 8
  %66 = load i32, ptr %out_size, align 4
  %conv32 = zext i32 %66 to i64
  %67 = load ptr, ptr %p.addr, align 8
  %iov33 = getelementptr inbounds %struct.MultiFDSendParams, ptr %67, i32 0, i32 22
  %68 = load ptr, ptr %iov33, align 8
  %69 = load ptr, ptr %p.addr, align 8
  %iovs_num34 = getelementptr inbounds %struct.MultiFDSendParams, ptr %69, i32 0, i32 23
  %70 = load i32, ptr %iovs_num34, align 8
  %idxprom35 = zext i32 %70 to i64
  %arrayidx36 = getelementptr %struct.iovec, ptr %68, i64 %idxprom35
  %iov_len = getelementptr inbounds %struct.iovec, ptr %arrayidx36, i32 0, i32 1
  store i64 %conv32, ptr %iov_len, align 8
  %71 = load ptr, ptr %p.addr, align 8
  %iovs_num37 = getelementptr inbounds %struct.MultiFDSendParams, ptr %71, i32 0, i32 23
  %72 = load i32, ptr %iovs_num37, align 8
  %inc38 = add i32 %72, 1
  store i32 %inc38, ptr %iovs_num37, align 8
  %73 = load i32, ptr %out_size, align 4
  %74 = load ptr, ptr %p.addr, align 8
  %next_packet_size = getelementptr inbounds %struct.MultiFDSendParams, ptr %74, i32 0, i32 19
  store i32 %73, ptr %next_packet_size, align 8
  %75 = load ptr, ptr %p.addr, align 8
  %flags = getelementptr inbounds %struct.MultiFDSendParams, ptr %75, i32 0, i32 14
  %76 = load i32, ptr %flags, align 4
  %or = or i32 %76, 2
  store i32 %or, ptr %flags, align 4
  store i32 0, ptr %retval, align 4
  br label %return

return:                                           ; preds = %for.end, %if.then23, %if.then18
  %77 = load i32, ptr %retval, align 4
  ret i32 %77
}