; Function Attrs: nounwind sspstrong uwtable
define internal range(i32 -1, 1) i32 @zlib_send_prepare(ptr noundef captures(none) %p, ptr noundef %errp) #0 {
entry:
  %data = getelementptr inbounds nuw i8, ptr %p, i64 424
  %0 = load ptr, ptr %data, align 8
  %normal_num = getelementptr inbounds nuw i8, ptr %p, i64 416
  %1 = load i32, ptr %normal_num, align 8
  %cmp45.not = icmp eq i32 %1, 0
  br i1 %cmp45.not, label %for.end, label %for.body.lr.ph

for.body.lr.ph:                                   ; preds = %entry
  %zbuff_len = getelementptr inbounds nuw i8, ptr %0, i64 120
  %buf = getelementptr inbounds nuw i8, ptr %0, i64 128
  %pages = getelementptr inbounds nuw i8, ptr %p, i64 352
  %normal = getelementptr inbounds nuw i8, ptr %p, i64 408
  %page_size = getelementptr inbounds nuw i8, ptr %p, i64 40
  %avail_in = getelementptr inbounds nuw i8, ptr %0, i64 8
  %avail_out = getelementptr inbounds nuw i8, ptr %0, i64 32
  %zbuff = getelementptr inbounds nuw i8, ptr %0, i64 112
  %next_out = getelementptr inbounds nuw i8, ptr %0, i64 24
  br label %for.body

for.body:                                         ; preds = %for.body.lr.ph, %if.end26
  %indvars.iv = phi i64 [ 0, %for.body.lr.ph ], [ %indvars.iv.next, %if.end26 ]
  %2 = phi i32 [ %1, %for.body.lr.ph ], [ %19, %if.end26 ]
  %out_size.046 = phi i32 [ 0, %for.body.lr.ph ], [ %add, %if.end26 ]
  %3 = load i32, ptr %zbuff_len, align 8
  %sub = sub i32 %3, %out_size.046
  %sub3 = add i32 %2, -1
  %4 = zext i32 %sub3 to i64
  %cmp4 = icmp eq i64 %indvars.iv, %4
  %spec.store.select = select i1 %cmp4, i32 2, i32 0
  %5 = load ptr, ptr %buf, align 8
  %6 = load ptr, ptr %pages, align 8
  %block = getelementptr inbounds nuw i8, ptr %6, i64 24
  %7 = load ptr, ptr %block, align 8
  %host = getelementptr inbounds nuw i8, ptr %7, i64 24
  %8 = load ptr, ptr %host, align 8
  %9 = load ptr, ptr %normal, align 8
  %arrayidx = getelementptr i64, ptr %9, i64 %indvars.iv
  %10 = load i64, ptr %arrayidx, align 8
  %add.ptr = getelementptr i8, ptr %8, i64 %10
  %11 = load i32, ptr %page_size, align 8
  %conv = zext i32 %11 to i64
  tail call void @llvm.memcpy.p0.p0.i64(ptr align 1 %5, ptr align 1 %add.ptr, i64 %conv, i1 false)
  %12 = load i32, ptr %page_size, align 8
  store i32 %12, ptr %avail_in, align 8
  %13 = load ptr, ptr %buf, align 8
  store ptr %13, ptr %0, align 8
  store i32 %sub, ptr %avail_out, align 8
  %14 = load ptr, ptr %zbuff, align 8
  %idx.ext = zext i32 %out_size.046 to i64
  %add.ptr7 = getelementptr i8, ptr %14, i64 %idx.ext
  store ptr %add.ptr7, ptr %next_out, align 8
  br label %do.body

do.body:                                          ; preds = %land.rhs, %for.body
  %call = tail call i32 @deflate(ptr noundef nonnull %0, i32 noundef %spec.store.select) #6
  %cmp8 = icmp eq i32 %call, 0
  br i1 %cmp8, label %land.lhs.true, label %if.then23

land.lhs.true:                                    ; preds = %do.body
  %15 = load i32, ptr %avail_in, align 8
  %tobool.not = icmp eq i32 %15, 0
  %16 = load i32, ptr %avail_out, align 8
  br i1 %tobool.not, label %if.end26, label %land.rhs

land.rhs:                                         ; preds = %land.lhs.true
  %tobool12.not = icmp eq i32 %16, 0
  br i1 %tobool12.not, label %if.then18, label %do.body, !llvm.loop !5

if.then18:                                        ; preds = %land.rhs
  %17 = load i8, ptr %p, align 8
  %conv19 = zext i8 %17 to i32
  tail call void (ptr, ptr, i32, ptr, ptr, ...) @error_setg_internal(ptr noundef %errp, ptr noundef nonnull @.str.4, i32 noundef 158, ptr noundef nonnull @__func__.zlib_send_prepare, ptr noundef nonnull @.str.6, i32 noundef %conv19) #6
  br label %return

if.then23:                                        ; preds = %do.body
  %18 = load i8, ptr %p, align 8
  %conv25 = zext i8 %18 to i32
  tail call void (ptr, ptr, i32, ptr, ptr, ...) @error_setg_internal(ptr noundef %errp, ptr noundef nonnull @.str.4, i32 noundef 163, ptr noundef nonnull @__func__.zlib_send_prepare, ptr noundef nonnull @.str.7, i32 noundef %conv25, i32 noundef %call) #6
  br label %return

if.end26:                                         ; preds = %land.lhs.true
  %add = sub i32 %3, %16
  %indvars.iv.next = add nuw nsw i64 %indvars.iv, 1
  %19 = load i32, ptr %normal_num, align 8
  %20 = zext i32 %19 to i64
  %cmp = icmp samesign ult i64 %indvars.iv.next, %20
  br i1 %cmp, label %for.body, label %for.end, !llvm.loop !7

for.end:                                          ; preds = %if.end26, %entry
  %out_size.0.lcssa = phi i32 [ 0, %entry ], [ %add, %if.end26 ]
  %zbuff29 = getelementptr inbounds nuw i8, ptr %0, i64 112
  %21 = load ptr, ptr %zbuff29, align 8
  %iov = getelementptr inbounds nuw i8, ptr %p, i64 392
  %22 = load ptr, ptr %iov, align 8
  %iovs_num = getelementptr inbounds nuw i8, ptr %p, i64 400
  %23 = load i32, ptr %iovs_num, align 8
  %idxprom30 = zext i32 %23 to i64
  %arrayidx31 = getelementptr %struct.iovec, ptr %22, i64 %idxprom30
  store ptr %21, ptr %arrayidx31, align 8
  %conv32 = zext i32 %out_size.0.lcssa to i64
  %24 = load ptr, ptr %iov, align 8
  %25 = load i32, ptr %iovs_num, align 8
  %idxprom35 = zext i32 %25 to i64
  %iov_len = getelementptr %struct.iovec, ptr %24, i64 %idxprom35, i32 1
  store i64 %conv32, ptr %iov_len, align 8
  %26 = load i32, ptr %iovs_num, align 8
  %inc38 = add i32 %26, 1
  store i32 %inc38, ptr %iovs_num, align 8
  %next_packet_size = getelementptr inbounds nuw i8, ptr %p, i64 368
  store i32 %out_size.0.lcssa, ptr %next_packet_size, align 8
  %flags = getelementptr inbounds nuw i8, ptr %p, i64 332
  %27 = load i32, ptr %flags, align 4
  %or = or i32 %27, 2
  store i32 %or, ptr %flags, align 4
  br label %return

return:                                           ; preds = %for.end, %if.then23, %if.then18
  %retval.0 = phi i32 [ -1, %if.then18 ], [ -1, %if.then23 ], [ 0, %for.end ]
  ret i32 %retval.0
}